; Function Attrs: mustprogress nofree norecurse nosync nounwind willreturn memory(argmem: read) uwtable
define hidden range(i64 0, -4294967040) i64 @_ZNK6hermes11Instruction10getVarietyEv(ptr noundef nonnull readonly align 8 captures(none) dereferenceable(132) %this) local_unnamed_addr #6 align 2 {
entry:
  %add.ptr = getelementptr inbounds nuw i8, ptr %this, i64 16
  %0 = load i8, ptr %add.ptr, align 8
  switch i8 %0, label %sw.epilog [
    i8 34, label %sw.epilog.sink.split
    i8 26, label %sw.epilog.sink.split
    i8 86, label %sw.epilog.sink.split
  ]

sw.epilog.sink.split:                             ; preds = %entry, %entry, %entry
  %op_.i3 = getelementptr inbounds nuw i8, ptr %this, i64 132
  %1 = load i32, ptr %op_.i3, align 4
  %2 = zext i32 %1 to i64
  %3 = shl nuw i64 %2, 32
  br label %sw.epilog

sw.epilog:                                        ; preds = %sw.epilog.sink.split, %entry
  %operatorKind.0 = phi i64 [ 0, %entry ], [ %3, %sw.epilog.sink.split ]
  %retval.sroa.0.0.insert.ext.i = zext i8 %0 to i64
  %retval.sroa.0.0.insert.insert.i = or disjoint i64 %operatorKind.0, %retval.sroa.0.0.insert.ext.i
  ret i64 %retval.sroa.0.0.insert.insert.i
}